target datalayout = "e-m:e-p270:32:32-p271:32:32-p272:64:64-i64:64-i128:128-f80:128-n8:16:32:64-S128"
target triple = "x86_64-unknown-linux-gnu"

%struct.QemuMutex = type { %union.pthread_mutex_t, i8 }
%union.pthread_mutex_t = type { %struct.__pthread_mutex_s }
%struct.__pthread_mutex_s = type { i32, i32, i32, i32, i32, i16, i16, %struct.__pthread_internal_list }
%struct.__pthread_internal_list = type { ptr, ptr }
%union.anon = type { %struct.QTailQLink }
%struct.QTailQLink = type { ptr, ptr }
%struct.QemuCond = type { %union.pthread_cond_t, i8 }
%union.pthread_cond_t = type { %struct.__pthread_cond_s }
%struct.__pthread_cond_s = type { %union.__atomic_wide_counter, %union.__atomic_wide_counter, [2 x i32], [2 x i32], i32, i32, [2 x i32] }
%union.__atomic_wide_counter = type { i64 }
%struct.CompareState = type { %struct.Object, ptr, ptr, ptr, ptr, %struct.CharBackend, %struct.CharBackend, %struct.CharBackend, %struct.CharBackend, %struct.SocketReadState, %struct.SocketReadState, %struct.SocketReadState, %struct.SendCo, %struct.SendCo, i8, i64, i32, %struct._GQueue, ptr, ptr, ptr, ptr, ptr, i32, %union.anon.0 }
%struct.Object = type { ptr, ptr, ptr, i32, ptr }
%struct.CharBackend = type { ptr, ptr, ptr, ptr, ptr, ptr, i32, i32 }
%struct.SocketReadState = type { i32, i8, i32, i32, i32, [69632 x i8], ptr }
%struct.SendCo = type { ptr, ptr, ptr, %struct._GQueue, i8, i8, i32 }
%struct._GQueue = type { ptr, ptr, i32 }
%union.anon.0 = type { %struct.QTailQLink }

@.str = private unnamed_addr constant [27 x i8] c"../qemu/net/colo-compare.c\00", align 1
@__func__.colo_notify_compares_event = private unnamed_addr constant [27 x i8] c"colo_notify_compares_event\00", align 1
@qemu_mutex_lock_func = external global ptr, align 8
@colo_compare_mutex = internal global %struct.QemuMutex zeroinitializer, align 8
@colo_compare_active = internal global i8 0, align 1
@event_mtx = internal global %struct.QemuMutex zeroinitializer, align 8
@net_compares = internal global %union.anon { %struct.QTailQLink { ptr null, ptr @net_compares } }, align 8
@event_unhandled_count = internal global i32 0, align 4
@qemu_cond_wait_func = external global ptr, align 8
@event_complete_cond = internal global %struct.QemuCond zeroinitializer, align 8

; Function Attrs: nounwind sspstrong uwtable
define dso_local void @colo_notify_compares_event(ptr noundef %opaque, i32 noundef %event, ptr noundef %errp) #0 {
entry:
  %opaque.addr = alloca ptr, align 8
  %event.addr = alloca i32, align 4
  %errp.addr = alloca ptr, align 8
  %s = alloca ptr, align 8
  %_f = alloca ptr, align 8
  %tmp = alloca ptr, align 8
  %atomic-temp = alloca ptr, align 8
  %_f1 = alloca ptr, align 8
  %tmp7 = alloca ptr, align 8
  %atomic-temp8 = alloca ptr, align 8
  %_f13 = alloca ptr, align 8
  %tmp19 = alloca ptr, align 8
  %atomic-temp20 = alloca ptr, align 8
  store ptr %opaque, ptr %opaque.addr, align 8
  store i32 %event, ptr %event.addr, align 4
  store ptr %errp, ptr %errp.addr, align 8
  br label %while.cond

while.cond:                                       ; preds = %do.end, %entry
  br i1 false, label %while.body, label %while.end

while.body:                                       ; preds = %while.cond
  br label %do.body

do.body:                                          ; preds = %while.body
  call void @g_assertion_message_expr(ptr noundef null, ptr noundef @.str, i32 noundef 907, ptr noundef @__func__.colo_notify_compares_event, ptr noundef null) #10
  unreachable

do.end:                                           ; No predecessors!
  br label %while.cond

while.end:                                        ; preds = %while.cond
  %0 = load atomic i64, ptr @qemu_mutex_lock_func monotonic, align 8
  store i64 %0, ptr %atomic-temp, align 8
  %1 = load ptr, ptr %atomic-temp, align 8
  store ptr %1, ptr %tmp, align 8
  %2 = load ptr, ptr %tmp, align 8
  store ptr %2, ptr %_f, align 8
  %3 = load ptr, ptr %_f, align 8
  call void %3(ptr noundef @colo_compare_mutex, ptr noundef @.str, i32 noundef 907)
  %4 = load i8, ptr @colo_compare_active, align 1
  %tobool = trunc i8 %4 to i1
  br i1 %tobool, label %if.end, label %if.then

if.then:                                          ; preds = %while.end
  call void @qemu_mutex_unlock_impl(ptr noundef @colo_compare_mutex, ptr noundef @.str, i32 noundef 910)
  br label %return

if.end:                                           ; preds = %while.end
  br label %while.cond2

while.cond2:                                      ; preds = %do.end5, %if.end
  br i1 false, label %while.body3, label %while.end6

while.body3:                                      ; preds = %while.cond2
  br label %do.body4

do.body4:                                         ; preds = %while.body3
  call void @g_assertion_message_expr(ptr noundef null, ptr noundef @.str, i32 noundef 914, ptr noundef @__func__.colo_notify_compares_event, ptr noundef null) #10
  unreachable

do.end5:                                          ; No predecessors!
  br label %while.cond2

while.end6:                                       ; preds = %while.cond2
  %5 = load atomic i64, ptr @qemu_mutex_lock_func monotonic, align 8
  store i64 %5, ptr %atomic-temp8, align 8
  %6 = load ptr, ptr %atomic-temp8, align 8
  store ptr %6, ptr %tmp7, align 8
  %7 = load ptr, ptr %tmp7, align 8
  store ptr %7, ptr %_f1, align 8
  %8 = load ptr, ptr %_f1, align 8
  call void %8(ptr noundef @event_mtx, ptr noundef @.str, i32 noundef 914)
  %9 = load ptr, ptr @net_compares, align 8
  store ptr %9, ptr %s, align 8
  br label %for.cond

for.cond:                                         ; preds = %for.inc, %while.end6
  %10 = load ptr, ptr %s, align 8
  %tobool9 = icmp ne ptr %10, null
  br i1 %tobool9, label %for.body, label %for.end

for.body:                                         ; preds = %for.cond
  %11 = load i32, ptr %event.addr, align 4
  %12 = load ptr, ptr %s, align 8
  %event10 = getelementptr inbounds %struct.CompareState, ptr %12, i32 0, i32 23
  store i32 %11, ptr %event10, align 8
  %13 = load ptr, ptr %s, align 8
  %event_bh = getelementptr inbounds %struct.CompareState, ptr %13, i32 0, i32 22
  %14 = load ptr, ptr %event_bh, align 8
  call void @qemu_bh_schedule(ptr noundef %14)
  %15 = load i32, ptr @event_unhandled_count, align 4
  %inc = add i32 %15, 1
  store i32 %inc, ptr @event_unhandled_count, align 4
  br label %for.inc

for.inc:                                          ; preds = %for.body
  %16 = load ptr, ptr %s, align 8
  %next = getelementptr inbounds %struct.CompareState, ptr %16, i32 0, i32 24
  %17 = load ptr, ptr %next, align 8
  store ptr %17, ptr %s, align 8
  br label %for.cond, !llvm.loop !5

for.end:                                          ; preds = %for.cond
  br label %while.cond11

while.cond11:                                     ; preds = %while.end18, %for.end
  %18 = load i32, ptr @event_unhandled_count, align 4
  %cmp = icmp sgt i32 %18, 0
  br i1 %cmp, label %while.body12, label %while.end21

while.body12:                                     ; preds = %while.cond11
  br label %while.cond14

while.cond14:                                     ; preds = %do.end17, %while.body12
  br i1 false, label %while.body15, label %while.end18

while.body15:                                     ; preds = %while.cond14
  br label %do.body16

do.body16:                                        ; preds = %while.body15
  call void @g_assertion_message_expr(ptr noundef null, ptr noundef @.str, i32 noundef 922, ptr noundef @__func__.colo_notify_compares_event, ptr noundef null) #10
  unreachable

do.end17:                                         ; No predecessors!
  br label %while.cond14

while.end18:                                      ; preds = %while.cond14
  %19 = load atomic i64, ptr @qemu_cond_wait_func monotonic, align 8
  store i64 %19, ptr %atomic-temp20, align 8
  %20 = load ptr, ptr %atomic-temp20, align 8
  store ptr %20, ptr %tmp19, align 8
  %21 = load ptr, ptr %tmp19, align 8
  store ptr %21, ptr %_f13, align 8
  %22 = load ptr, ptr %_f13, align 8
  call void %22(ptr noundef @event_complete_cond, ptr noundef @event_mtx, ptr noundef @.str, i32 noundef 922)
  br label %while.cond11, !llvm.loop !7

while.end21:                                      ; preds = %while.cond11
  call void @qemu_mutex_unlock_impl(ptr noundef @event_mtx, ptr noundef @.str, i32 noundef 925)
  call void @qemu_mutex_unlock_impl(ptr noundef @colo_compare_mutex, ptr noundef @.str, i32 noundef 926)
  br label %return

return:                                           ; preds = %while.end21, %if.then
  ret void
}