; Function Attrs: nounwind sspstrong uwtable
define dso_local void @colo_notify_compares_event(ptr noundef readnone captures(none) %opaque, i32 noundef %event, ptr noundef readnone captures(none) %errp) local_unnamed_addr #0 {
entry:
  %0 = load atomic i64, ptr @qemu_mutex_lock_func monotonic, align 8
  %1 = inttoptr i64 %0 to ptr
  tail call void %1(ptr noundef nonnull @colo_compare_mutex, ptr noundef nonnull @.str, i32 noundef 907) #16
  %.b4 = load i1, ptr @colo_compare_active, align 1
  br i1 %.b4, label %while.end6, label %return

while.end6:                                       ; preds = %entry
  %2 = load atomic i64, ptr @qemu_mutex_lock_func monotonic, align 8
  %3 = inttoptr i64 %2 to ptr
  tail call void %3(ptr noundef nonnull @event_mtx, ptr noundef nonnull @.str, i32 noundef 914) #16
  %s.05 = load ptr, ptr @net_compares, align 8
  %tobool9.not6 = icmp eq ptr %s.05, null
  br i1 %tobool9.not6, label %while.end6.while.cond11.preheader_crit_edge, label %for.body

while.end6.while.cond11.preheader_crit_edge:      ; preds = %while.end6
  %.pre = load i32, ptr @event_unhandled_count, align 4
  br label %while.cond11.preheader

while.cond11.preheader:                           ; preds = %for.body, %while.end6.while.cond11.preheader_crit_edge
  %4 = phi i32 [ %.pre, %while.end6.while.cond11.preheader_crit_edge ], [ %inc, %for.body ]
  %cmp8 = icmp sgt i32 %4, 0
  br i1 %cmp8, label %while.end18, label %while.end21

for.body:                                         ; preds = %while.end6, %for.body
  %s.07 = phi ptr [ %s.0, %for.body ], [ %s.05, %while.end6 ]
  %event10 = getelementptr inbounds nuw i8, ptr %s.07, i64 209488
  store i32 %event, ptr %event10, align 8
  %event_bh = getelementptr inbounds nuw i8, ptr %s.07, i64 209480
  %5 = load ptr, ptr %event_bh, align 8
  tail call void @qemu_bh_schedule(ptr noundef %5) #16
  %6 = load i32, ptr @event_unhandled_count, align 4
  %inc = add i32 %6, 1
  store i32 %inc, ptr @event_unhandled_count, align 4
  %next = getelementptr inbounds nuw i8, ptr %s.07, i64 209496
  %s.0 = load ptr, ptr %next, align 8
  %tobool9.not = icmp eq ptr %s.0, null
  br i1 %tobool9.not, label %while.cond11.preheader, label %for.body, !llvm.loop !5

while.end18:                                      ; preds = %while.cond11.preheader, %while.end18
  %7 = load atomic i64, ptr @qemu_cond_wait_func monotonic, align 8
  %8 = inttoptr i64 %7 to ptr
  tail call void %8(ptr noundef nonnull @event_complete_cond, ptr noundef nonnull @event_mtx, ptr noundef nonnull @.str, i32 noundef 922) #16
  %9 = load i32, ptr @event_unhandled_count, align 4
  %cmp = icmp sgt i32 %9, 0
  br i1 %cmp, label %while.end18, label %while.end21, !llvm.loop !7

while.end21:                                      ; preds = %while.end18, %while.cond11.preheader
  tail call void @qemu_mutex_unlock_impl(ptr noundef nonnull @event_mtx, ptr noundef nonnull @.str, i32 noundef 925) #16
  br label %return

return:                                           ; preds = %entry, %while.end21
  %.sink = phi i32 [ 926, %while.end21 ], [ 910, %entry ]
  tail call void @qemu_mutex_unlock_impl(ptr noundef nonnull @colo_compare_mutex, ptr noundef nonnull @.str, i32 noundef %.sink) #16
  ret void
}